; Function Attrs: mustprogress nounwind uwtable
define hidden void @_ZN16BlockListBuilder11set_entriesEi(ptr noundef nonnull align 8 dereferenceable(140) %0, i32 noundef %1) local_unnamed_addr #0 align 2 {
  %3 = tail call noundef ptr @_ZN16BlockListBuilder13make_block_atEiP10BlockBegin(ptr noundef nonnull align 8 dereferenceable(140) %0, i32 noundef 0, ptr noundef null)
  %4 = getelementptr inbounds i8, ptr %0, i64 8
  %5 = load ptr, ptr %4, align 8
  %6 = getelementptr inbounds i8, ptr %5, i64 8
  %7 = load ptr, ptr %6, align 8
  %8 = icmp eq ptr %7, null
  br i1 %8, label %9, label %13

9:                                                ; preds = %2
  %10 = getelementptr inbounds i8, ptr %3, i64 132
  %11 = load i32, ptr %10, align 4
  %12 = or i32 %11, 1
  store i32 %12, ptr %10, align 4
  br label %13

13:                                               ; preds = %9, %2
  %.not = icmp eq i32 %1, -1
  br i1 %.not, label %19, label %14

14:                                               ; preds = %13
  %15 = tail call noundef ptr @_ZN16BlockListBuilder13make_block_atEiP10BlockBegin(ptr noundef nonnull align 8 dereferenceable(140) %0, i32 noundef %1, ptr noundef null)
  %16 = getelementptr inbounds i8, ptr %15, i64 132
  %17 = load i32, ptr %16, align 4
  %18 = or i32 %17, 2
  store i32 %18, ptr %16, align 4
  br label %19

19:                                               ; preds = %14, %13
  %20 = load ptr, ptr %4, align 8
  %21 = getelementptr inbounds i8, ptr %20, i64 56
  %22 = load ptr, ptr %21, align 8
  %23 = load i32, ptr %22, align 4
  %24 = icmp sgt i32 %23, 0
  br i1 %24, label %.lr.ph, label %._crit_edge

.lr.ph:                                           ; preds = %19
  %25 = getelementptr inbounds i8, ptr %22, i64 8
  %wide.trip.count = zext nneg i32 %23 to i64
  br label %26

26:                                               ; preds = %.lr.ph, %26
  %indvars.iv = phi i64 [ 0, %.lr.ph ], [ %indvars.iv.next, %26 ]
  %27 = load ptr, ptr %25, align 8
  %28 = getelementptr inbounds ptr, ptr %27, i64 %indvars.iv
  %29 = load ptr, ptr %28, align 8
  %30 = load ptr, ptr %29, align 8
  %31 = getelementptr inbounds i8, ptr %30, i64 16
  %32 = load i32, ptr %31, align 8
  %33 = tail call noundef ptr @_ZN16BlockListBuilder13make_block_atEiP10BlockBegin(ptr noundef nonnull align 8 dereferenceable(140) %0, i32 noundef %32, ptr noundef null)
  %34 = getelementptr inbounds i8, ptr %33, i64 132
  %35 = load i32, ptr %34, align 4
  %36 = or i32 %35, 4
  store i32 %36, ptr %34, align 4
  %37 = getelementptr inbounds i8, ptr %29, i64 8
  store ptr %33, ptr %37, align 8
  %indvars.iv.next = add nuw nsw i64 %indvars.iv, 1
  %exitcond.not = icmp eq i64 %indvars.iv.next, %wide.trip.count
  br i1 %exitcond.not, label %._crit_edge, label %26, !llvm.loop !9

._crit_edge:                                      ; preds = %26, %19
  ret void
}